; Function Attrs: nounwind uwtable
define internal range(i32 -1, 1) i32 @np_char(ptr noundef readonly captures(none) %0, ptr noundef writeonly captures(none) %1, ptr noundef %2, ptr readnone captures(none) %3) #0 {
  %5 = getelementptr i8, ptr %2, i64 8
  %.val = load ptr, ptr %5, align 8, !tbaa !24
  %6 = getelementptr i8, ptr %.val, i64 168
  %.val6 = load i64, ptr %6, align 8, !tbaa !51
  %7 = and i64 %.val6, 134217728
  %.not = icmp eq i64 %7, 0
  br i1 %.not, label %10, label %8

8:                                                ; preds = %4
  %9 = tail call i64 @PyBytes_Size(ptr noundef nonnull %2) #7
  %.not5 = icmp eq i64 %9, 1
  br i1 %.not5, label %13, label %10

10:                                               ; preds = %8, %4
  %11 = getelementptr inbounds nuw i8, ptr %0, i64 24
  %12 = load ptr, ptr %11, align 8, !tbaa !16
  tail call void @PyErr_SetString(ptr noundef %12, ptr noundef nonnull @.str.53) #7
  br label %16

13:                                               ; preds = %8
  %14 = getelementptr inbounds nuw i8, ptr %2, i64 32
  %15 = load i8, ptr %14, align 1, !tbaa !18
  store i8 %15, ptr %1, align 1, !tbaa !18
  br label %16

16:                                               ; preds = %13, %10
  %.0 = phi i32 [ -1, %10 ], [ 0, %13 ]
  ret i32 %.0
}